; ModuleID = 'source-C-CXX/10/1120.cpp'
source_filename = "source-C-CXX/10/1120.cpp"
target datalayout = "e-m:e-p270:32:32-p271:32:32-p272:64:64-i64:64-f80:128-n8:16:32:64-S128"
target triple = "x86_64-pc-linux-gnu"

%"class.std::ios_base::Init" = type { i8 }
%"class.std::basic_istream" = type { i32 (...)**, i64, %"class.std::basic_ios" }
%"class.std::basic_ios" = type { %"class.std::ios_base", %"class.std::basic_ostream"*, i8, i8, %"class.std::basic_streambuf"*, %"class.std::ctype"*, %"class.std::num_put"*, %"class.std::num_get"* }
%"class.std::ios_base" = type { i32 (...)**, i64, i64, i32, i32, i32, %"struct.std::ios_base::_Callback_list"*, %"struct.std::ios_base::_Words", [8 x %"struct.std::ios_base::_Words"], i32, %"struct.std::ios_base::_Words"*, %"class.std::locale" }
%"struct.std::ios_base::_Callback_list" = type { %"struct.std::ios_base::_Callback_list"*, void (i32, %"class.std::ios_base"*, i32)*, i32, i32 }
%"struct.std::ios_base::_Words" = type { i8*, i64 }
%"class.std::locale" = type { %"class.std::locale::_Impl"* }
%"class.std::locale::_Impl" = type { i32, %"class.std::locale::facet"**, i64, %"class.std::locale::facet"**, i8** }
%"class.std::locale::facet" = type <{ i32 (...)**, i32, [4 x i8] }>
%"class.std::basic_ostream" = type { i32 (...)**, %"class.std::basic_ios" }
%"class.std::basic_streambuf" = type { i32 (...)**, i8*, i8*, i8*, i8*, i8*, i8*, %"class.std::locale" }
%"class.std::ctype" = type <{ %"class.std::locale::facet.base", [4 x i8], %struct.__locale_struct*, i8, [7 x i8], i32*, i32*, i16*, i8, [256 x i8], [256 x i8], i8, [6 x i8] }>
%"class.std::locale::facet.base" = type <{ i32 (...)**, i32 }>
%struct.__locale_struct = type { [13 x %struct.__locale_data*], i16*, i32*, i32*, [13 x i8*] }
%struct.__locale_data = type opaque
%"class.std::num_put" = type { %"class.std::locale::facet.base", [4 x i8] }
%"class.std::num_get" = type { %"class.std::locale::facet.base", [4 x i8] }

@_ZStL8__ioinit = internal global %"class.std::ios_base::Init" zeroinitializer, align 1
@__dso_handle = external hidden global i8
@__const.main.day = private unnamed_addr constant [12 x i32] [i32 31, i32 28, i32 31, i32 30, i32 31, i32 30, i32 31, i32 31, i32 30, i32 31, i32 30, i32 31], align 16
@_ZSt3cin = external global %"class.std::basic_istream", align 8
@_ZSt4cout = external global %"class.std::basic_ostream", align 8
@llvm.global_ctors = appending global [1 x { i32, void ()*, i8* }] [{ i32, void ()*, i8* } { i32 65535, void ()* @_GLOBAL__sub_I_1120.cpp, i8* null }]

declare void @_ZNSt8ios_base4InitC1Ev(%"class.std::ios_base::Init"* nonnull align 1 dereferenceable(1)) unnamed_addr #0

; Function Attrs: nounwind
declare void @_ZNSt8ios_base4InitD1Ev(%"class.std::ios_base::Init"* nonnull align 1 dereferenceable(1)) unnamed_addr #1

; Function Attrs: nofree nounwind
declare i32 @__cxa_atexit(void (i8*)*, i8*, i8*) local_unnamed_addr #2

; Function Attrs: mustprogress norecurse sspstrong uwtable
define dso_local i32 @main() local_unnamed_addr #3 {
  %1 = alloca i32, align 4
  %2 = alloca i32, align 4
  %3 = alloca i32, align 4
  %4 = alloca [12 x i32], align 16
  %5 = bitcast i32* %1 to i8*
  call void @llvm.lifetime.start.p0i8(i64 4, i8* nonnull %5) #8
  %6 = bitcast i32* %2 to i8*
  call void @llvm.lifetime.start.p0i8(i64 4, i8* nonnull %6) #8
  %7 = bitcast i32* %3 to i8*
  call void @llvm.lifetime.start.p0i8(i64 4, i8* nonnull %7) #8
  %8 = bitcast [12 x i32]* %4 to i8*
  call void @llvm.lifetime.start.p0i8(i64 48, i8* nonnull %8) #8
  call void @llvm.memcpy.p0i8.p0i8.i64(i8* noundef nonnull align 16 dereferenceable(48) %8, i8* noundef nonnull align 16 dereferenceable(48) bitcast ([12 x i32]* @__const.main.day to i8*), i64 48, i1 false)
  %9 = call nonnull align 8 dereferenceable(16) %"class.std::basic_istream"* @_ZNSirsERi(%"class.std::basic_istream"* nonnull align 8 dereferenceable(16) @_ZSt3cin, i32* nonnull align 4 dereferenceable(4) %1)
  %10 = call nonnull align 8 dereferenceable(16) %"class.std::basic_istream"* @_ZNSirsERi(%"class.std::basic_istream"* nonnull align 8 dereferenceable(16) %9, i32* nonnull align 4 dereferenceable(4) %2)
  %11 = call nonnull align 8 dereferenceable(16) %"class.std::basic_istream"* @_ZNSirsERi(%"class.std::basic_istream"* nonnull align 8 dereferenceable(16) %10, i32* nonnull align 4 dereferenceable(4) %3)
  %12 = load i32, i32* %1, align 4, !tbaa !5
  %13 = and i32 %12, 3
  %14 = icmp eq i32 %13, 0
  %15 = srem i32 %12, 100
  %16 = icmp ne i32 %15, 0
  %17 = and i1 %14, %16
  %18 = srem i32 %12, 400
  %19 = icmp eq i32 %18, 0
  %20 = select i1 %17, i1 true, i1 %19
  br i1 %20, label %21, label %23

21:                                               ; preds = %0
  %22 = getelementptr inbounds [12 x i32], [12 x i32]* %4, i64 0, i64 1
  store i32 29, i32* %22, align 4, !tbaa !5
  br label %23

23:                                               ; preds = %0, %21
  %24 = load i32, i32* %2, align 4, !tbaa !5
  %25 = icmp sgt i32 %24, 1
  %26 = load i32, i32* %3, align 4, !tbaa !5
  br i1 %25, label %27, label %118

27:                                               ; preds = %23
  %28 = add nsw i32 %24, -1
  %29 = zext i32 %28 to i64
  %30 = icmp ult i32 %28, 8
  br i1 %30, label %113, label %31

31:                                               ; preds = %27
  %32 = and i64 %29, 4294967288
  %33 = insertelement <4 x i32> <i32 poison, i32 0, i32 0, i32 0>, i32 %26, i32 0
  %34 = add nsw i64 %32, -8
  %35 = lshr exact i64 %34, 3
  %36 = add nuw nsw i64 %35, 1
  %37 = and i64 %36, 3
  %38 = icmp ult i64 %34, 24
  br i1 %38, label %84, label %39

39:                                               ; preds = %31
  %40 = and i64 %36, 4611686018427387900
  br label %41

41:                                               ; preds = %41, %39
  %42 = phi i64 [ 0, %39 ], [ %81, %41 ]
  %43 = phi <4 x i32> [ %33, %39 ], [ %79, %41 ]
  %44 = phi <4 x i32> [ zeroinitializer, %39 ], [ %80, %41 ]
  %45 = phi i64 [ %40, %39 ], [ %82, %41 ]
  %46 = getelementptr inbounds [12 x i32], [12 x i32]* %4, i64 0, i64 %42
  %47 = bitcast i32* %46 to <4 x i32>*
  %48 = load <4 x i32>, <4 x i32>* %47, align 16, !tbaa !5
  %49 = getelementptr inbounds i32, i32* %46, i64 4
  %50 = bitcast i32* %49 to <4 x i32>*
  %51 = load <4 x i32>, <4 x i32>* %50, align 16, !tbaa !5
  %52 = add <4 x i32> %43, %48
  %53 = add <4 x i32> %44, %51
  %54 = or i64 %42, 8
  %55 = getelementptr inbounds [12 x i32], [12 x i32]* %4, i64 0, i64 %54
  %56 = bitcast i32* %55 to <4 x i32>*
  %57 = load <4 x i32>, <4 x i32>* %56, align 16, !tbaa !5
  %58 = getelementptr inbounds i32, i32* %55, i64 4
  %59 = bitcast i32* %58 to <4 x i32>*
  %60 = load <4 x i32>, <4 x i32>* %59, align 16, !tbaa !5
  %61 = add <4 x i32> %52, %57
  %62 = add <4 x i32> %53, %60
  %63 = or i64 %42, 16
  %64 = getelementptr inbounds [12 x i32], [12 x i32]* %4, i64 0, i64 %63
  %65 = bitcast i32* %64 to <4 x i32>*
  %66 = load <4 x i32>, <4 x i32>* %65, align 16, !tbaa !5
  %67 = getelementptr inbounds i32, i32* %64, i64 4
  %68 = bitcast i32* %67 to <4 x i32>*
  %69 = load <4 x i32>, <4 x i32>* %68, align 16, !tbaa !5
  %70 = add <4 x i32> %61, %66
  %71 = add <4 x i32> %62, %69
  %72 = or i64 %42, 24
  %73 = getelementptr inbounds [12 x i32], [12 x i32]* %4, i64 0, i64 %72
  %74 = bitcast i32* %73 to <4 x i32>*
  %75 = load <4 x i32>, <4 x i32>* %74, align 16, !tbaa !5
  %76 = getelementptr inbounds i32, i32* %73, i64 4
  %77 = bitcast i32* %76 to <4 x i32>*
  %78 = load <4 x i32>, <4 x i32>* %77, align 16, !tbaa !5
  %79 = add <4 x i32> %70, %75
  %80 = add <4 x i32> %71, %78
  %81 = add nuw i64 %42, 32
  %82 = add i64 %45, -4
  %83 = icmp eq i64 %82, 0
  br i1 %83, label %84, label %41, !llvm.loop !9

84:                                               ; preds = %41, %31
  %85 = phi <4 x i32> [ undef, %31 ], [ %79, %41 ]
  %86 = phi <4 x i32> [ undef, %31 ], [ %80, %41 ]
  %87 = phi i64 [ 0, %31 ], [ %81, %41 ]
  %88 = phi <4 x i32> [ %33, %31 ], [ %79, %41 ]
  %89 = phi <4 x i32> [ zeroinitializer, %31 ], [ %80, %41 ]
  %90 = icmp eq i64 %37, 0
  br i1 %90, label %107, label %91

91:                                               ; preds = %84, %91
  %92 = phi i64 [ %104, %91 ], [ %87, %84 ]
  %93 = phi <4 x i32> [ %102, %91 ], [ %88, %84 ]
  %94 = phi <4 x i32> [ %103, %91 ], [ %89, %84 ]
  %95 = phi i64 [ %105, %91 ], [ %37, %84 ]
  %96 = getelementptr inbounds [12 x i32], [12 x i32]* %4, i64 0, i64 %92
  %97 = bitcast i32* %96 to <4 x i32>*
  %98 = load <4 x i32>, <4 x i32>* %97, align 16, !tbaa !5
  %99 = getelementptr inbounds i32, i32* %96, i64 4
  %100 = bitcast i32* %99 to <4 x i32>*
  %101 = load <4 x i32>, <4 x i32>* %100, align 16, !tbaa !5
  %102 = add <4 x i32> %93, %98
  %103 = add <4 x i32> %94, %101
  %104 = add nuw i64 %92, 8
  %105 = add i64 %95, -1
  %106 = icmp eq i64 %105, 0
  br i1 %106, label %107, label %91, !llvm.loop !12

107:                                              ; preds = %91, %84
  %108 = phi <4 x i32> [ %85, %84 ], [ %102, %91 ]
  %109 = phi <4 x i32> [ %86, %84 ], [ %103, %91 ]
  %110 = add <4 x i32> %109, %108
  %111 = call i32 @llvm.vector.reduce.add.v4i32(<4 x i32> %110)
  %112 = icmp eq i64 %32, %29
  br i1 %112, label %116, label %113

113:                                              ; preds = %27, %107
  %114 = phi i64 [ 0, %27 ], [ %32, %107 ]
  %115 = phi i32 [ %26, %27 ], [ %111, %107 ]
  br label %121

116:                                              ; preds = %121, %107
  %117 = phi i32 [ %111, %107 ], [ %126, %121 ]
  store i32 %117, i32* %3, align 4, !tbaa !5
  br label %118

118:                                              ; preds = %23, %116
  %119 = phi i32 [ %117, %116 ], [ %26, %23 ]
  %120 = call nonnull align 8 dereferenceable(8) %"class.std::basic_ostream"* @_ZNSolsEi(%"class.std::basic_ostream"* nonnull align 8 dereferenceable(8) @_ZSt4cout, i32 %119)
  call void @llvm.lifetime.end.p0i8(i64 48, i8* nonnull %8) #8
  call void @llvm.lifetime.end.p0i8(i64 4, i8* nonnull %7) #8
  call void @llvm.lifetime.end.p0i8(i64 4, i8* nonnull %6) #8
  call void @llvm.lifetime.end.p0i8(i64 4, i8* nonnull %5) #8
  ret i32 0

121:                                              ; preds = %113, %121
  %122 = phi i64 [ %127, %121 ], [ %114, %113 ]
  %123 = phi i32 [ %126, %121 ], [ %115, %113 ]
  %124 = getelementptr inbounds [12 x i32], [12 x i32]* %4, i64 0, i64 %122
  %125 = load i32, i32* %124, align 4, !tbaa !5
  %126 = add nsw i32 %123, %125
  %127 = add nuw nsw i64 %122, 1
  %128 = icmp eq i64 %127, %29
  br i1 %128, label %116, label %121, !llvm.loop !14
}

; Function Attrs: argmemonly mustprogress nofree nosync nounwind willreturn
declare void @llvm.lifetime.start.p0i8(i64 immarg, i8* nocapture) #4

; Function Attrs: argmemonly mustprogress nofree nounwind willreturn
declare void @llvm.memcpy.p0i8.p0i8.i64(i8* noalias nocapture writeonly, i8* noalias nocapture readonly, i64, i1 immarg) #5

declare nonnull align 8 dereferenceable(16) %"class.std::basic_istream"* @_ZNSirsERi(%"class.std::basic_istream"* nonnull align 8 dereferenceable(16), i32* nonnull align 4 dereferenceable(4)) local_unnamed_addr #0

; Function Attrs: argmemonly mustprogress nofree nosync nounwind willreturn
declare void @llvm.lifetime.end.p0i8(i64 immarg, i8* nocapture) #4

declare nonnull align 8 dereferenceable(8) %"class.std::basic_ostream"* @_ZNSolsEi(%"class.std::basic_ostream"* nonnull align 8 dereferenceable(8), i32) local_unnamed_addr #0

; Function Attrs: sspstrong uwtable
define internal void @_GLOBAL__sub_I_1120.cpp() #6 section ".text.startup" {
  tail call void @_ZNSt8ios_base4InitC1Ev(%"class.std::ios_base::Init"* nonnull align 1 dereferenceable(1) @_ZStL8__ioinit)
  %1 = tail call i32 @__cxa_atexit(void (i8*)* bitcast (void (%"class.std::ios_base::Init"*)* @_ZNSt8ios_base4InitD1Ev to void (i8*)*), i8* getelementptr inbounds (%"class.std::ios_base::Init", %"class.std::ios_base::Init"* @_ZStL8__ioinit, i64 0, i32 0), i8* nonnull @__dso_handle) #8
  ret void
}

; Function Attrs: nofree nosync nounwind readnone willreturn
declare i32 @llvm.vector.reduce.add.v4i32(<4 x i32>) #7


!llvm.module.flags = !{!0, !1, !2, !3}
!llvm.ident = !{!4}

!0 = !{i32 1, !"wchar_size", i32 4}
!1 = !{i32 7, !"PIC Level", i32 2}
!2 = !{i32 7, !"PIE Level", i32 2}
!3 = !{i32 7, !"uwtable", i32 1}
!4 = !{!"clang version 13.0.0"}
!5 = !{!6, !6, i64 0}
!6 = !{!"int", !7, i64 0}
!7 = !{!"omnipotent char", !8, i64 0}
!8 = !{!"Simple C++ TBAA"}
!9 = distinct !{!9, !10, !11}
!10 = !{!"llvm.loop.mustprogress"}
!11 = !{!"llvm.loop.isvectorized", i32 1}
!12 = distinct !{!12, !13}
!13 = !{!"llvm.loop.unroll.disable"}
!14 = distinct !{!14, !10, !15, !11}
!15 = !{!"llvm.loop.unroll.runtime.disable"}
